	.file	"001.CS_IP_Register_Modify.c"
	.section	.rodata
.LC0:
	.string	"result: %d \n"
	.text
	.globl	main
	.type	main, @function
main:
.LFB0:
	.cfi_startproc
	pushq	%rbp
	.cfi_def_cfa_offset 16
	.cfi_offset 6, -16
	movq	%rsp, %rbp
	.cfi_def_cfa_register 6
	subq	$32, %rsp
	movl	%edi, -20(%rbp)
	movq	%rsi, -32(%rbp)
	movl	$0, -12(%rbp)
	movq	$add_one, -8(%rbp)
	movq	-8(%rbp), %rax
	movl	$7, %edi
	call	*%rax
	movl	%eax, -12(%rbp)
	movl	-12(%rbp), %eax
	movl	%eax, %esi
	movl	$.LC0, %edi
	movl	$0, %eax
	call	printf
	movl	$0, %eax
	leave
	.cfi_def_cfa 7, 8
	ret
	.cfi_endproc
.LFE0:
	.size	main, .-main
	.globl	add_one
	.type	add_one, @function
add_one:
.LFB1:
	.cfi_startproc
	pushq	%rbp # 参考: 008.CPU/000.寄存器/000.X86_64寄存器/000.寄存器-rbp.md 、008.CPU/000.寄存器/000.X86_64寄存器/002.寄存器-rsp.md
	.cfi_def_cfa_offset 16
	.cfi_offset 6, -16
	movq	%rsp, %rbp
	.cfi_def_cfa_register 6
	movl	%edi, -4(%rbp)
	movl	-4(%rbp), %eax
	addl	$1, %eax
	popq	%rbp
	.cfi_def_cfa 7, 8
	ret
	.cfi_endproc
.LFE1:
	.size	add_one, .-add_one
	.ident	"GCC: (Ubuntu/Linaro 4.7.4-3ubuntu12) 4.7.4"
	.section	.note.GNU-stack,"",@progbits
